target datalayout = "e-m:e-p270:32:32-p271:32:32-p272:64:64-i64:64-i128:128-f80:128-n8:16:32:64-S128"
target triple = "x86_64-pc-linux-gnu"

%union.AVRefStructOpaque = type { ptr }
%struct.ProgressInternal = type { %struct.ThreadProgress, ptr }
%struct.ThreadProgress = type { i32, i32, %union.pthread_mutex_t, %union.pthread_cond_t }
%union.pthread_mutex_t = type { %struct.__pthread_mutex_s }
%struct.__pthread_mutex_s = type { i32, i32, i32, i32, i32, i16, i16, %struct.__pthread_internal_list }
%struct.__pthread_internal_list = type { ptr, ptr }
%union.pthread_cond_t = type { %struct.__pthread_cond_s }
%struct.__pthread_cond_s = type { %union.__atomic_wide_counter, %union.__atomic_wide_counter, [2 x i32], [2 x i32], i32, i32, [2 x i32] }
%union.__atomic_wide_counter = type { i64 }

; Function Attrs: inlinehint nounwind uwtable
define internal void @ff_thread_progress_reset(ptr noundef %0) #7 {
  %2 = alloca ptr, align 8
  store ptr %0, ptr %2, align 8, !tbaa !334
  %3 = load ptr, ptr %2, align 8, !tbaa !334
  %4 = getelementptr inbounds nuw %struct.ThreadProgress, ptr %3, i32 0, i32 0
  %5 = load ptr, ptr %2, align 8, !tbaa !334
  %6 = getelementptr inbounds nuw %struct.ThreadProgress, ptr %5, i32 0, i32 1
  %7 = load i32, ptr %6, align 4, !tbaa !336
  %8 = icmp ne i32 %7, 0
  %9 = select i1 %8, i32 -1, i32 2147483647
  store i32 %9, ptr %4, align 4, !tbaa !63
  ret void
}

; Function Attrs: nounwind uwtable
define internal void @progress_frame_pool_reset_cb(ptr %0, ptr noundef %1) #0 {
  %3 = alloca %union.AVRefStructOpaque, align 8
  %4 = alloca ptr, align 8
  %5 = alloca ptr, align 8
  %6 = getelementptr inbounds nuw %union.AVRefStructOpaque, ptr %3, i32 0, i32 0
  store ptr %0, ptr %6, align 8
  store ptr %1, ptr %4, align 8, !tbaa !142
  call void @llvm.lifetime.start.p0(i64 8, ptr %5) #11
  %7 = load ptr, ptr %4, align 8, !tbaa !142
  store ptr %7, ptr %5, align 8, !tbaa !298
  %8 = load ptr, ptr %5, align 8, !tbaa !298
  %9 = getelementptr inbounds nuw %struct.ProgressInternal, ptr %8, i32 0, i32 0
  call void @ff_thread_progress_reset(ptr noundef %9)
  %10 = load ptr, ptr %5, align 8, !tbaa !298
  %11 = getelementptr inbounds nuw %struct.ProgressInternal, ptr %10, i32 0, i32 1
  %12 = load ptr, ptr %11, align 8, !tbaa !279
  call void @av_frame_unref(ptr noundef %12)
  call void @llvm.lifetime.end.p0(i64 8, ptr %5) #11
  ret void
}