; Function Attrs: nounwind uwtable
define internal void @progress_frame_pool_reset_cb(ptr readnone captures(none) %0, ptr noundef captures(none) initializes((0, 4)) %1) #0 {
  %3 = getelementptr inbounds nuw i8, ptr %1, i64 4
  %4 = load i32, ptr %3, align 4, !tbaa !271
  %.not.i = icmp eq i32 %4, 0
  %5 = select i1 %.not.i, i32 2147483647, i32 -1
  store i32 %5, ptr %1, align 4, !tbaa !44
  %6 = getelementptr inbounds nuw i8, ptr %1, i64 96
  %7 = load ptr, ptr %6, align 8, !tbaa !252
  tail call void @av_frame_unref(ptr noundef %7) #10
  ret void
}